target datalayout = "e-m:e-p270:32:32-p271:32:32-p272:64:64-i64:64-i128:128-f80:128-n8:16:32:64-S128"
target triple = "x86_64-pc-linux-gnu"

%struct.pg_conn = type { ptr, ptr, ptr, ptr, ptr, ptr, ptr, ptr, ptr, ptr, ptr, ptr, ptr, ptr, ptr, ptr, ptr, ptr, ptr, ptr, ptr, ptr, ptr, ptr, ptr, ptr, ptr, ptr, ptr, ptr, ptr, ptr, ptr, ptr, ptr, ptr, ptr, ptr, ptr, ptr, ptr, ptr, ptr, i8, ptr, i32, %struct.PGNoticeHooks, ptr, i32, i32, i32, i32, i32, [6 x i8], i8, i8, i32, i8, i8, i32, i8, i32, ptr, ptr, i32, i32, ptr, ptr, ptr, ptr, ptr, i32, %struct.SockAddr, %struct.SockAddr, i32, i32, i8, i8, i8, i8, i8, i8, ptr, i8, i32, [1 x ptr], i8, i8, ptr, ptr, i32, i32, i32, i8, i8, i32, i32, ptr, i8, i64, ptr, i64, ptr, i32, i32, ptr, i32, i8, i32, i32, i32, i32, ptr, %struct.pg_prng_state, ptr, i32, i32, i32, i32, ptr, i32, i32, i32, i32, ptr, i32, ptr, i8, ptr, ptr, ptr, i32, i8, i8, i8, i8, i8, i8, i8, i8, %struct.PQExpBufferData, i32, %struct.PQExpBufferData }
%struct.PGNoticeHooks = type { ptr, ptr, ptr, ptr }
%struct.SockAddr = type { %struct.sockaddr_storage, i32 }
%struct.sockaddr_storage = type { i16, [118 x i8], i64 }
%struct.pg_prng_state = type { i64, i64 }
%struct.PQExpBufferData = type { ptr, i64, i64 }
%struct.pg_result = type { i32, i32, ptr, ptr, i32, i32, ptr, i32, [64 x i8], i32, %struct.PGNoticeHooks, ptr, i32, i32, ptr, ptr, ptr, [1 x i8], ptr, i32, i32, i64 }
%struct.PGcmdQueueEntry = type { i32, ptr, ptr }

@.str.1 = private unnamed_addr constant [14 x i8] c"out of memory\00", align 1
@.str.5 = private unnamed_addr constant [15 x i8] c"out of memory\0A\00", align 1

; Function Attrs: nounwind uwtable
define i32 @pqGetErrorNotice3(ptr noundef %0, i1 noundef zeroext %1) #0 {
  %3 = alloca i32, align 4
  %4 = alloca ptr, align 8
  %5 = alloca i8, align 1
  %6 = alloca ptr, align 8
  %7 = alloca i8, align 1
  %8 = alloca %struct.PQExpBufferData, align 8
  %9 = alloca i8, align 1
  %10 = alloca i32, align 4
  store ptr %0, ptr %4, align 8
  %11 = zext i1 %1 to i8
  store i8 %11, ptr %5, align 1
  call void @llvm.lifetime.start.p0(i64 8, ptr %6) #11
  store ptr null, ptr %6, align 8
  call void @llvm.lifetime.start.p0(i64 1, ptr %7) #11
  store i8 0, ptr %7, align 1
  call void @llvm.lifetime.start.p0(i64 24, ptr %8) #11
  call void @llvm.lifetime.start.p0(i64 1, ptr %9) #11
  %12 = load i8, ptr %5, align 1, !range !3, !noundef !4
  %13 = trunc i8 %12 to i1
  br i1 %13, label %14, label %22

14:                                               ; preds = %2
  %15 = load ptr, ptr %4, align 8
  %16 = getelementptr inbounds nuw %struct.pg_conn, ptr %15, i32 0, i32 56
  %17 = load i32, ptr %16, align 4
  %18 = icmp ne i32 %17, 0
  br i1 %18, label %19, label %22

19:                                               ; preds = %14
  %20 = load ptr, ptr %4, align 8
  %21 = getelementptr inbounds nuw %struct.pg_conn, ptr %20, i32 0, i32 56
  store i32 2, ptr %21, align 4
  br label %22

22:                                               ; preds = %19, %14, %2
  %23 = load i8, ptr %5, align 1, !range !3, !noundef !4
  %24 = trunc i8 %23 to i1
  br i1 %24, label %25, label %27

25:                                               ; preds = %22
  %26 = load ptr, ptr %4, align 8
  call void @pqClearAsyncResult(ptr noundef %26)
  br label %27

27:                                               ; preds = %25, %22
  call void @initPQExpBuffer(ptr noundef %8)
  %28 = load ptr, ptr %4, align 8
  %29 = call ptr @PQmakeEmptyPGresult(ptr noundef %28, i32 noundef 0)
  store ptr %29, ptr %6, align 8
  %30 = load ptr, ptr %6, align 8
  %31 = icmp ne ptr %30, null
  br i1 %31, label %32, label %38

32:                                               ; preds = %27
  %33 = load i8, ptr %5, align 1, !range !3, !noundef !4
  %34 = trunc i8 %33 to i1
  %35 = select i1 %34, i32 7, i32 6
  %36 = load ptr, ptr %6, align 8
  %37 = getelementptr inbounds nuw %struct.pg_result, ptr %36, i32 0, i32 7
  store i32 %35, ptr %37, align 8
  br label %38

38:                                               ; preds = %32, %27
  br label %39

39:                                               ; preds = %75, %38
  %40 = load ptr, ptr %4, align 8
  %41 = call i32 @pqGetc(ptr noundef %9, ptr noundef %40)
  %42 = icmp ne i32 %41, 0
  br i1 %42, label %43, label %44

43:                                               ; preds = %39
  br label %173

44:                                               ; preds = %39
  %45 = load i8, ptr %9, align 1
  %46 = sext i8 %45 to i32
  %47 = icmp eq i32 %46, 0
  br i1 %47, label %48, label %49

48:                                               ; preds = %44
  br label %76

49:                                               ; preds = %44
  %50 = load ptr, ptr %4, align 8
  %51 = call i32 @pqGets(ptr noundef %8, ptr noundef %50)
  %52 = icmp ne i32 %51, 0
  br i1 %52, label %53, label %54

53:                                               ; preds = %49
  br label %173

54:                                               ; preds = %49
  %55 = load ptr, ptr %6, align 8
  %56 = load i8, ptr %9, align 1
  %57 = getelementptr inbounds nuw %struct.PQExpBufferData, ptr %8, i32 0, i32 0
  %58 = load ptr, ptr %57, align 8
  call void @pqSaveMessageField(ptr noundef %55, i8 noundef signext %56, ptr noundef %58)
  %59 = load i8, ptr %9, align 1
  %60 = sext i8 %59 to i32
  %61 = icmp eq i32 %60, 67
  br i1 %61, label %62, label %69

62:                                               ; preds = %54
  %63 = load ptr, ptr %4, align 8
  %64 = getelementptr inbounds nuw %struct.pg_conn, ptr %63, i32 0, i32 53
  %65 = getelementptr inbounds [6 x i8], ptr %64, i64 0, i64 0
  %66 = getelementptr inbounds nuw %struct.PQExpBufferData, ptr %8, i32 0, i32 0
  %67 = load ptr, ptr %66, align 8
  %68 = call i64 @strlcpy(ptr noundef %65, ptr noundef %67, i64 noundef 6)
  br label %75

69:                                               ; preds = %54
  %70 = load i8, ptr %9, align 1
  %71 = sext i8 %70 to i32
  %72 = icmp eq i32 %71, 80
  br i1 %72, label %73, label %74

73:                                               ; preds = %69
  store i8 1, ptr %7, align 1
  br label %74

74:                                               ; preds = %73, %69
  br label %75

75:                                               ; preds = %74, %62
  br label %39

76:                                               ; preds = %48
  %77 = load i8, ptr %7, align 1, !range !3, !noundef !4
  %78 = trunc i8 %77 to i1
  br i1 %78, label %79, label %104

79:                                               ; preds = %76
  %80 = load ptr, ptr %6, align 8
  %81 = icmp ne ptr %80, null
  br i1 %81, label %82, label %104

82:                                               ; preds = %79
  %83 = load ptr, ptr %4, align 8
  %84 = getelementptr inbounds nuw %struct.pg_conn, ptr %83, i32 0, i32 68
  %85 = load ptr, ptr %84, align 8
  %86 = icmp ne ptr %85, null
  br i1 %86, label %87, label %104

87:                                               ; preds = %82
  %88 = load ptr, ptr %4, align 8
  %89 = getelementptr inbounds nuw %struct.pg_conn, ptr %88, i32 0, i32 68
  %90 = load ptr, ptr %89, align 8
  %91 = getelementptr inbounds nuw %struct.PGcmdQueueEntry, ptr %90, i32 0, i32 1
  %92 = load ptr, ptr %91, align 8
  %93 = icmp ne ptr %92, null
  br i1 %93, label %94, label %104

94:                                               ; preds = %87
  %95 = load ptr, ptr %6, align 8
  %96 = load ptr, ptr %4, align 8
  %97 = getelementptr inbounds nuw %struct.pg_conn, ptr %96, i32 0, i32 68
  %98 = load ptr, ptr %97, align 8
  %99 = getelementptr inbounds nuw %struct.PGcmdQueueEntry, ptr %98, i32 0, i32 1
  %100 = load ptr, ptr %99, align 8
  %101 = call ptr @pqResultStrdup(ptr noundef %95, ptr noundef %100)
  %102 = load ptr, ptr %6, align 8
  %103 = getelementptr inbounds nuw %struct.pg_result, ptr %102, i32 0, i32 16
  store ptr %101, ptr %103, align 8
  br label %104

104:                                              ; preds = %94, %87, %82, %79, %76
  call void @resetPQExpBuffer(ptr noundef %8)
  %105 = load ptr, ptr %6, align 8
  %106 = load ptr, ptr %4, align 8
  %107 = getelementptr inbounds nuw %struct.pg_conn, ptr %106, i32 0, i32 110
  %108 = load i32, ptr %107, align 8
  %109 = load ptr, ptr %4, align 8
  %110 = getelementptr inbounds nuw %struct.pg_conn, ptr %109, i32 0, i32 111
  %111 = load i32, ptr %110, align 4
  call void @pqBuildErrorMessage3(ptr noundef %8, ptr noundef %105, i32 noundef %108, i32 noundef %111)
  %112 = load i8, ptr %5, align 1, !range !3, !noundef !4
  %113 = trunc i8 %112 to i1
  br i1 %113, label %114, label %138

114:                                              ; preds = %104
  %115 = load ptr, ptr %4, align 8
  call void @pqClearAsyncResult(ptr noundef %115)
  %116 = load ptr, ptr %6, align 8
  %117 = icmp ne ptr %116, null
  br i1 %117, label %118, label %123

118:                                              ; preds = %114
  %119 = load ptr, ptr %6, align 8
  call void @pqSetResultError(ptr noundef %119, ptr noundef %8, i32 noundef 0)
  %120 = load ptr, ptr %6, align 8
  %121 = load ptr, ptr %4, align 8
  %122 = getelementptr inbounds nuw %struct.pg_conn, ptr %121, i32 0, i32 126
  store ptr %120, ptr %122, align 8
  br label %126

123:                                              ; preds = %114
  %124 = load ptr, ptr %4, align 8
  %125 = getelementptr inbounds nuw %struct.pg_conn, ptr %124, i32 0, i32 127
  store i8 1, ptr %125, align 8
  br label %126

126:                                              ; preds = %123, %118
  %127 = getelementptr inbounds nuw %struct.PQExpBufferData, ptr %8, i32 0, i32 2
  %128 = load i64, ptr %127, align 8
  %129 = icmp eq i64 %128, 0
  br i1 %129, label %130, label %132

130:                                              ; preds = %126
  %131 = load ptr, ptr %4, align 8
  call void (ptr, ptr, ...) @libpq_append_conn_error(ptr noundef %131, ptr noundef @.str.1)
  br label %137

132:                                              ; preds = %126
  %133 = load ptr, ptr %4, align 8
  %134 = getelementptr inbounds nuw %struct.pg_conn, ptr %133, i32 0, i32 140
  %135 = getelementptr inbounds nuw %struct.PQExpBufferData, ptr %8, i32 0, i32 0
  %136 = load ptr, ptr %135, align 8
  call void @appendPQExpBufferStr(ptr noundef %134, ptr noundef %136)
  br label %137

137:                                              ; preds = %132, %130
  br label %172

138:                                              ; preds = %104
  %139 = load ptr, ptr %6, align 8
  %140 = icmp ne ptr %139, null
  br i1 %140, label %141, label %171

141:                                              ; preds = %138
  %142 = getelementptr inbounds nuw %struct.PQExpBufferData, ptr %8, i32 0, i32 2
  %143 = load i64, ptr %142, align 8
  %144 = icmp eq i64 %143, 0
  br i1 %144, label %145, label %148

145:                                              ; preds = %141
  %146 = load ptr, ptr %6, align 8
  %147 = getelementptr inbounds nuw %struct.pg_result, ptr %146, i32 0, i32 14
  store ptr @.str.5, ptr %147, align 8
  br label %153

148:                                              ; preds = %141
  %149 = getelementptr inbounds nuw %struct.PQExpBufferData, ptr %8, i32 0, i32 0
  %150 = load ptr, ptr %149, align 8
  %151 = load ptr, ptr %6, align 8
  %152 = getelementptr inbounds nuw %struct.pg_result, ptr %151, i32 0, i32 14
  store ptr %150, ptr %152, align 8
  br label %153

153:                                              ; preds = %148, %145
  %154 = load ptr, ptr %6, align 8
  %155 = getelementptr inbounds nuw %struct.pg_result, ptr %154, i32 0, i32 10
  %156 = getelementptr inbounds nuw %struct.PGNoticeHooks, ptr %155, i32 0, i32 0
  %157 = load ptr, ptr %156, align 8
  %158 = icmp ne ptr %157, null
  br i1 %158, label %159, label %169

159:                                              ; preds = %153
  %160 = load ptr, ptr %6, align 8
  %161 = getelementptr inbounds nuw %struct.pg_result, ptr %160, i32 0, i32 10
  %162 = getelementptr inbounds nuw %struct.PGNoticeHooks, ptr %161, i32 0, i32 0
  %163 = load ptr, ptr %162, align 8
  %164 = load ptr, ptr %6, align 8
  %165 = getelementptr inbounds nuw %struct.pg_result, ptr %164, i32 0, i32 10
  %166 = getelementptr inbounds nuw %struct.PGNoticeHooks, ptr %165, i32 0, i32 1
  %167 = load ptr, ptr %166, align 8
  %168 = load ptr, ptr %6, align 8
  call void %163(ptr noundef %167, ptr noundef %168)
  br label %169

169:                                              ; preds = %159, %153
  %170 = load ptr, ptr %6, align 8
  call void @PQclear(ptr noundef %170)
  br label %171

171:                                              ; preds = %169, %138
  br label %172

172:                                              ; preds = %171, %137
  call void @termPQExpBuffer(ptr noundef %8)
  store i32 0, ptr %3, align 4
  store i32 1, ptr %10, align 4
  br label %175

173:                                              ; preds = %53, %43
  %174 = load ptr, ptr %6, align 8
  call void @PQclear(ptr noundef %174)
  call void @termPQExpBuffer(ptr noundef %8)
  store i32 -1, ptr %3, align 4
  store i32 1, ptr %10, align 4
  br label %175

175:                                              ; preds = %173, %172
  call void @llvm.lifetime.end.p0(i64 1, ptr %9) #11
  call void @llvm.lifetime.end.p0(i64 24, ptr %8) #11
  call void @llvm.lifetime.end.p0(i64 1, ptr %7) #11
  call void @llvm.lifetime.end.p0(i64 8, ptr %6) #11
  %176 = load i32, ptr %3, align 4
  ret i32 %176
}