; Function Attrs: nounwind uwtable
define range(i32 -1, 1) i32 @pqGetErrorNotice3(ptr noundef %0, i1 noundef zeroext %1) local_unnamed_addr #0 {
  %3 = alloca %struct.PQExpBufferData, align 8
  %4 = alloca i8, align 1
  call void @llvm.lifetime.start.p0(i64 24, ptr nonnull %3) #16
  call void @llvm.lifetime.start.p0(i64 1, ptr nonnull %4) #16
  br i1 %1, label %5, label %.critedge

5:                                                ; preds = %2
  %6 = getelementptr inbounds nuw i8, ptr %0, i64 436
  %7 = load i32, ptr %6, align 4
  %.not = icmp eq i32 %7, 0
  br i1 %.not, label %9, label %8

8:                                                ; preds = %5
  store i32 2, ptr %6, align 4
  br label %9

9:                                                ; preds = %5, %8
  tail call void @pqClearAsyncResult(ptr noundef nonnull %0) #16
  br label %.critedge

.critedge:                                        ; preds = %2, %9
  call void @initPQExpBuffer(ptr noundef nonnull %3) #16
  %10 = call ptr @PQmakeEmptyPGresult(ptr noundef %0, i32 noundef 0) #16
  %11 = icmp ne ptr %10, null
  br i1 %11, label %12, label %15

12:                                               ; preds = %.critedge
  %13 = select i1 %1, i32 7, i32 6
  %14 = getelementptr inbounds nuw i8, ptr %10, i64 40
  store i32 %13, ptr %14, align 8
  br label %15

15:                                               ; preds = %12, %.critedge
  %16 = call i32 @pqGetc(ptr noundef nonnull %4, ptr noundef %0) #16
  %.not4955 = icmp eq i32 %16, 0
  br i1 %.not4955, label %.lr.ph, label %._crit_edge

.lr.ph:                                           ; preds = %15
  %17 = getelementptr inbounds nuw i8, ptr %0, i64 428
  br label %18

18:                                               ; preds = %.lr.ph, %31
  %.056 = phi i1 [ false, %.lr.ph ], [ %.1, %31 ]
  %19 = load i8, ptr %4, align 1
  %20 = icmp eq i8 %19, 0
  br i1 %20, label %33, label %21

21:                                               ; preds = %18
  %22 = call i32 @pqGets(ptr noundef nonnull %3, ptr noundef %0) #16
  %.not50 = icmp eq i32 %22, 0
  br i1 %.not50, label %23, label %._crit_edge

23:                                               ; preds = %21
  %24 = load i8, ptr %4, align 1
  %25 = load ptr, ptr %3, align 8
  call void @pqSaveMessageField(ptr noundef %10, i8 noundef signext %24, ptr noundef %25) #16
  %26 = load i8, ptr %4, align 1
  switch i8 %26, label %31 [
    i8 67, label %27
    i8 80, label %30
  ]

27:                                               ; preds = %23
  %28 = load ptr, ptr %3, align 8
  %29 = call i64 @strlcpy(ptr noundef nonnull dereferenceable(1) %17, ptr noundef nonnull dereferenceable(1) %28, i64 noundef 6) #16
  br label %31

30:                                               ; preds = %23
  br label %31

31:                                               ; preds = %23, %30, %27
  %.1 = phi i1 [ %.056, %27 ], [ true, %30 ], [ %.056, %23 ]
  %32 = call i32 @pqGetc(ptr noundef nonnull %4, ptr noundef %0) #16
  %.not49 = icmp eq i32 %32, 0
  br i1 %.not49, label %18, label %._crit_edge

33:                                               ; preds = %18
  %or.cond = and i1 %11, %.056
  br i1 %or.cond, label %34, label %43

34:                                               ; preds = %33
  %35 = getelementptr inbounds nuw i8, ptr %0, i64 496
  %36 = load ptr, ptr %35, align 8
  %.not51 = icmp eq ptr %36, null
  br i1 %.not51, label %43, label %37

37:                                               ; preds = %34
  %38 = getelementptr inbounds nuw i8, ptr %36, i64 8
  %39 = load ptr, ptr %38, align 8
  %.not52 = icmp eq ptr %39, null
  br i1 %.not52, label %43, label %40

40:                                               ; preds = %37
  %41 = call ptr @pqResultStrdup(ptr noundef nonnull %10, ptr noundef nonnull %39) #16
  %42 = getelementptr inbounds nuw i8, ptr %10, i64 176
  store ptr %41, ptr %42, align 8
  br label %43

43:                                               ; preds = %40, %37, %34, %33
  call void @resetPQExpBuffer(ptr noundef nonnull %3) #16
  %44 = getelementptr inbounds nuw i8, ptr %0, i64 968
  %45 = load i32, ptr %44, align 8
  %46 = getelementptr inbounds nuw i8, ptr %0, i64 972
  %47 = load i32, ptr %46, align 4
  call void @pqBuildErrorMessage3(ptr noundef nonnull %3, ptr noundef %10, i32 noundef %45, i32 noundef %47)
  br i1 %1, label %48, label %61

48:                                               ; preds = %43
  call void @pqClearAsyncResult(ptr noundef nonnull %0) #16
  br i1 %11, label %49, label %51

49:                                               ; preds = %48
  call void @pqSetResultError(ptr noundef nonnull %10, ptr noundef nonnull %3, i32 noundef 0) #16
  %50 = getelementptr inbounds nuw i8, ptr %0, i64 1064
  store ptr %10, ptr %50, align 8
  br label %53

51:                                               ; preds = %48
  %52 = getelementptr inbounds nuw i8, ptr %0, i64 1072
  store i8 1, ptr %52, align 8
  br label %53

53:                                               ; preds = %51, %49
  %54 = getelementptr inbounds nuw i8, ptr %3, i64 16
  %55 = load i64, ptr %54, align 8
  %56 = icmp eq i64 %55, 0
  br i1 %56, label %57, label %58

57:                                               ; preds = %53
  call void (ptr, ptr, ...) @libpq_append_conn_error(ptr noundef nonnull %0, ptr noundef nonnull @.str.1) #16
  br label %74

58:                                               ; preds = %53
  %59 = getelementptr inbounds nuw i8, ptr %0, i64 1120
  %60 = load ptr, ptr %3, align 8
  call void @appendPQExpBufferStr(ptr noundef nonnull %59, ptr noundef %60) #16
  br label %74

61:                                               ; preds = %43
  br i1 %11, label %62, label %74

62:                                               ; preds = %61
  %63 = getelementptr inbounds nuw i8, ptr %3, i64 16
  %64 = load i64, ptr %63, align 8
  %65 = icmp eq i64 %64, 0
  %66 = load ptr, ptr %3, align 8
  %spec.select = select i1 %65, ptr @.str.5, ptr %66
  %67 = getelementptr inbounds nuw i8, ptr %10, i64 160
  store ptr %spec.select, ptr %67, align 8
  %68 = getelementptr inbounds nuw i8, ptr %10, i64 112
  %69 = load ptr, ptr %68, align 8
  %.not53 = icmp eq ptr %69, null
  br i1 %.not53, label %73, label %70

70:                                               ; preds = %62
  %71 = getelementptr inbounds nuw i8, ptr %10, i64 120
  %72 = load ptr, ptr %71, align 8
  call void %69(ptr noundef %72, ptr noundef nonnull %10) #16
  br label %73

73:                                               ; preds = %70, %62
  call void @PQclear(ptr noundef nonnull %10) #16
  br label %74

._crit_edge:                                      ; preds = %31, %21, %15
  call void @PQclear(ptr noundef %10) #16
  br label %74

74:                                               ; preds = %58, %57, %73, %61, %._crit_edge
  %.042 = phi i32 [ -1, %._crit_edge ], [ 0, %61 ], [ 0, %73 ], [ 0, %57 ], [ 0, %58 ]
  call void @termPQExpBuffer(ptr noundef nonnull %3) #16
  call void @llvm.lifetime.end.p0(i64 1, ptr nonnull %4) #16
  call void @llvm.lifetime.end.p0(i64 24, ptr nonnull %3) #16
  ret i32 %.042
}